target datalayout = "e-m:e-p270:32:32-p271:32:32-p272:64:64-i64:64-i128:128-f80:128-n8:16:32:64-S128"
target triple = "x86_64-pc-linux-gnu"

%"struct.boost::source_location" = type { ptr, ptr, i32, i32 }
%"class.boost::urls::url_base" = type { ptr, %"class.boost::urls::url_view_base", ptr, i64 }
%"class.boost::urls::url_view_base" = type { [8 x i8], %"struct.boost::urls::detail::url_impl", ptr }
%"struct.boost::urls::detail::url_impl" = type <{ ptr, [8 x i64], [7 x i64], i64, i64, [16 x i8], i16, [2 x i8], i32, i16, i8, [5 x i8] }>
%"struct.boost::urls::url_base::op_t" = type { ptr, ptr, ptr, ptr }

@.str = private unnamed_addr constant [110 x i8] c"generated/home/dtcxzyw/WorkSpace/Projects/compilers/llvm-opt-benchmark/bench/boost/boost/libs/url/src/url.cpp\00", align 1
@.str.2 = private unnamed_addr constant [13 x i8] c"reserve_impl\00", align 1

; Function Attrs: mustprogress nounwind uwtable
define linkonce_odr hidden noundef i64 @_ZNK5boost4urls13url_view_base4sizeEv(ptr noundef nonnull align 8 dereferenceable(192) %0) #2 comdat align 2 {
  %2 = alloca ptr, align 8
  store ptr %0, ptr %2, align 8, !tbaa !7
  %3 = load ptr, ptr %2, align 8
  %4 = getelementptr inbounds nuw %"class.boost::urls::url_view_base", ptr %3, i32 0, i32 2
  %5 = load ptr, ptr %4, align 8, !tbaa !45
  %6 = call noundef i64 @_ZNK5boost4urls6detail8url_impl6offsetEi(ptr noundef nonnull align 8 dereferenceable(171) %5, i32 noundef 7) #17
  ret i64 %6
}

; Function Attrs: mustprogress uwtable
define noundef ptr @_ZN5boost4urls3url8allocateEm(ptr noundef nonnull align 8 dereferenceable(216) %0, i64 noundef %1) #5 align 2 {
  %3 = alloca ptr, align 8
  %4 = alloca i64, align 8
  %5 = alloca ptr, align 8
  store ptr %0, ptr %3, align 8, !tbaa !7
  store i64 %1, ptr %4, align 8, !tbaa !27
  %6 = load ptr, ptr %3, align 8
  call void @llvm.lifetime.start.p0(i64 8, ptr %5) #17
  %7 = load i64, ptr %4, align 8, !tbaa !27
  %8 = add i64 %7, 1
  %9 = call noalias noundef nonnull ptr @_Znam(i64 noundef %8) #21
  store ptr %9, ptr %5, align 8, !tbaa !7
  %10 = load i64, ptr %4, align 8, !tbaa !27
  %11 = getelementptr inbounds nuw %"class.boost::urls::url_base", ptr %6, i32 0, i32 3
  store i64 %10, ptr %11, align 8, !tbaa !25
  %12 = load ptr, ptr %5, align 8, !tbaa !7
  call void @llvm.lifetime.end.p0(i64 8, ptr %5) #17
  ret ptr %12
}

; Function Attrs: mustprogress nounwind uwtable
define linkonce_odr hidden void @_ZN5boost15source_locationC2EPKcjS2_j(ptr noundef nonnull align 8 dereferenceable(24) %0, ptr noundef %1, i32 noundef %2, ptr noundef %3, i32 noundef %4) unnamed_addr #2 comdat align 2 {
  %6 = alloca ptr, align 8
  %7 = alloca ptr, align 8
  %8 = alloca i32, align 4
  %9 = alloca ptr, align 8
  %10 = alloca i32, align 4
  store ptr %0, ptr %6, align 8, !tbaa !7
  store ptr %1, ptr %7, align 8, !tbaa !7
  store i32 %2, ptr %8, align 4, !tbaa !3
  store ptr %3, ptr %9, align 8, !tbaa !7
  store i32 %4, ptr %10, align 4, !tbaa !3
  %11 = load ptr, ptr %6, align 8
  %12 = getelementptr inbounds nuw %"struct.boost::source_location", ptr %11, i32 0, i32 0
  %13 = load ptr, ptr %7, align 8, !tbaa !7
  store ptr %13, ptr %12, align 8, !tbaa !28
  %14 = getelementptr inbounds nuw %"struct.boost::source_location", ptr %11, i32 0, i32 1
  %15 = load ptr, ptr %9, align 8, !tbaa !7
  store ptr %15, ptr %14, align 8, !tbaa !30
  %16 = getelementptr inbounds nuw %"struct.boost::source_location", ptr %11, i32 0, i32 2
  %17 = load i32, ptr %8, align 4, !tbaa !3
  store i32 %17, ptr %16, align 8, !tbaa !31
  %18 = getelementptr inbounds nuw %"struct.boost::source_location", ptr %11, i32 0, i32 3
  %19 = load i32, ptr %10, align 4, !tbaa !3
  store i32 %19, ptr %18, align 4, !tbaa !32
  ret void
}

; Function Attrs: mustprogress nounwind uwtable
define linkonce_odr hidden noundef i64 @_ZN5boost4urls13url_view_base8max_sizeEv() #2 comdat align 2 {
  ret i64 16
}

; Function Attrs: mustprogress uwtable
define void @_ZN5boost4urls3url12reserve_implEmRNS0_8url_base4op_tE(ptr noundef nonnull align 8 dereferenceable(216) %0, i64 noundef %1, ptr noundef nonnull align 8 dereferenceable(32) %2) unnamed_addr #5 align 2 {
  %4 = alloca ptr, align 8
  %5 = alloca i64, align 8
  %6 = alloca ptr, align 8
  %7 = alloca %"struct.boost::source_location", align 8
  %8 = alloca ptr, align 8
  %9 = alloca i64, align 8
  %10 = alloca i64, align 8
  store ptr %0, ptr %4, align 8, !tbaa !7
  store i64 %1, ptr %5, align 8, !tbaa !27
  store ptr %2, ptr %6, align 8, !tbaa !7
  %11 = load ptr, ptr %4, align 8
  %12 = load i64, ptr %5, align 8, !tbaa !27
  %13 = call noundef i64 @_ZN5boost4urls13url_view_base8max_sizeEv() #17
  %14 = icmp ugt i64 %12, %13
  br i1 %14, label %15, label %16

15:                                               ; preds = %3
  call void @llvm.lifetime.start.p0(i64 24, ptr %7) #17
  call void @_ZN5boost15source_locationC2EPKcjS2_j(ptr noundef nonnull align 8 dereferenceable(24) %7, ptr noundef @.str, i32 noundef 112, ptr noundef @.str.2, i32 noundef 9) #17
  call void @_ZN5boost4urls6detail18throw_length_errorERKNS_15source_locationE(ptr noundef nonnull align 8 dereferenceable(24) %7) #19
  unreachable

16:                                               ; preds = %3
  %17 = load i64, ptr %5, align 8, !tbaa !27
  %18 = getelementptr inbounds nuw %"class.boost::urls::url_base", ptr %11, i32 0, i32 3
  %19 = load i64, ptr %18, align 8, !tbaa !25
  %20 = icmp ule i64 %17, %19
  br i1 %20, label %21, label %22

21:                                               ; preds = %16
  br label %77

22:                                               ; preds = %16
  call void @llvm.lifetime.start.p0(i64 8, ptr %8) #17
  %23 = getelementptr inbounds nuw %"class.boost::urls::url_base", ptr %11, i32 0, i32 2
  %24 = load ptr, ptr %23, align 8, !tbaa !16
  %25 = icmp ne ptr %24, null
  br i1 %25, label %26, label %64

26:                                               ; preds = %22
  call void @llvm.lifetime.start.p0(i64 8, ptr %9) #17
  %27 = getelementptr inbounds nuw %"class.boost::urls::url_base", ptr %11, i32 0, i32 3
  %28 = load i64, ptr %27, align 8, !tbaa !25
  %29 = udiv i64 %28, 2
  store i64 %29, ptr %9, align 8, !tbaa !27
  call void @llvm.lifetime.start.p0(i64 8, ptr %10) #17
  %30 = getelementptr inbounds nuw %"class.boost::urls::url_base", ptr %11, i32 0, i32 3
  %31 = load i64, ptr %30, align 8, !tbaa !25
  %32 = call noundef i64 @_ZN5boost4urls13url_view_base8max_sizeEv() #17
  %33 = load i64, ptr %9, align 8, !tbaa !27
  %34 = sub i64 %32, %33
  %35 = icmp ule i64 %31, %34
  br i1 %35, label %36, label %41

36:                                               ; preds = %26
  %37 = getelementptr inbounds nuw %"class.boost::urls::url_base", ptr %11, i32 0, i32 3
  %38 = load i64, ptr %37, align 8, !tbaa !25
  %39 = load i64, ptr %9, align 8, !tbaa !27
  %40 = add i64 %38, %39
  store i64 %40, ptr %10, align 8, !tbaa !27
  br label %43

41:                                               ; preds = %26
  %42 = call noundef i64 @_ZN5boost4urls13url_view_base8max_sizeEv() #17
  store i64 %42, ptr %10, align 8, !tbaa !27
  br label %43

43:                                               ; preds = %41, %36
  %44 = load i64, ptr %10, align 8, !tbaa !27
  %45 = load i64, ptr %5, align 8, !tbaa !27
  %46 = icmp ult i64 %44, %45
  br i1 %46, label %47, label %49

47:                                               ; preds = %43
  %48 = load i64, ptr %5, align 8, !tbaa !27
  store i64 %48, ptr %10, align 8, !tbaa !27
  br label %49

49:                                               ; preds = %47, %43
  %50 = load i64, ptr %10, align 8, !tbaa !27
  %51 = call noundef ptr @_ZN5boost4urls3url8allocateEm(ptr noundef nonnull align 8 dereferenceable(216) %11, i64 noundef %50)
  store ptr %51, ptr %8, align 8, !tbaa !7
  %52 = load ptr, ptr %8, align 8, !tbaa !7
  %53 = getelementptr inbounds nuw %"class.boost::urls::url_base", ptr %11, i32 0, i32 2
  %54 = load ptr, ptr %53, align 8, !tbaa !16
  %55 = getelementptr inbounds i8, ptr %11, i64 8
  %56 = call noundef i64 @_ZNK5boost4urls13url_view_base4sizeEv(ptr noundef nonnull align 8 dereferenceable(192) %55) #17
  %57 = add i64 %56, 1
  call void @llvm.memcpy.p0.p0.i64(ptr align 1 %52, ptr align 1 %54, i64 %57, i1 false)
  %58 = getelementptr inbounds nuw %"class.boost::urls::url_base", ptr %11, i32 0, i32 2
  %59 = load ptr, ptr %58, align 8, !tbaa !16
  %60 = load ptr, ptr %6, align 8, !tbaa !7
  %61 = getelementptr inbounds nuw %"struct.boost::urls::url_base::op_t", ptr %60, i32 0, i32 3
  store ptr %59, ptr %61, align 8, !tbaa !43
  %62 = load ptr, ptr %8, align 8, !tbaa !7
  %63 = getelementptr inbounds nuw %"class.boost::urls::url_base", ptr %11, i32 0, i32 2
  store ptr %62, ptr %63, align 8, !tbaa !16
  call void @llvm.lifetime.end.p0(i64 8, ptr %10) #17
  call void @llvm.lifetime.end.p0(i64 8, ptr %9) #17
  br label %71

64:                                               ; preds = %22
  %65 = load i64, ptr %5, align 8, !tbaa !27
  %66 = call noundef ptr @_ZN5boost4urls3url8allocateEm(ptr noundef nonnull align 8 dereferenceable(216) %11, i64 noundef %65)
  %67 = getelementptr inbounds nuw %"class.boost::urls::url_base", ptr %11, i32 0, i32 2
  store ptr %66, ptr %67, align 8, !tbaa !16
  %68 = getelementptr inbounds nuw %"class.boost::urls::url_base", ptr %11, i32 0, i32 2
  %69 = load ptr, ptr %68, align 8, !tbaa !16
  %70 = getelementptr inbounds i8, ptr %69, i64 0
  store i8 0, ptr %70, align 1, !tbaa !37
  br label %71

71:                                               ; preds = %64, %49
  %72 = getelementptr inbounds nuw %"class.boost::urls::url_base", ptr %11, i32 0, i32 2
  %73 = load ptr, ptr %72, align 8, !tbaa !16
  %74 = getelementptr inbounds i8, ptr %11, i64 8
  %75 = getelementptr inbounds nuw %"class.boost::urls::url_view_base", ptr %74, i32 0, i32 1
  %76 = getelementptr inbounds nuw %"struct.boost::urls::detail::url_impl", ptr %75, i32 0, i32 0
  store ptr %73, ptr %76, align 8, !tbaa !42
  call void @llvm.lifetime.end.p0(i64 8, ptr %8) #17
  br label %77

77:                                               ; preds = %71, %21
  ret void
}