; Function Attrs: mustprogress uwtable
define void @_ZN5boost4urls3url12reserve_implEmRNS0_8url_base4op_tE(ptr nocapture noundef nonnull align 8 dereferenceable(216) %0, i64 noundef %1, ptr nocapture noundef nonnull writeonly align 8 dereferenceable(32) %2) unnamed_addr #3 align 2 {
  %4 = alloca %"struct.boost::source_location", align 8
  %5 = icmp ugt i64 %1, 16
  br i1 %5, label %6, label %10

6:                                                ; preds = %3
  call void @llvm.lifetime.start.p0(i64 24, ptr nonnull %4) #22
  store ptr @.str, ptr %4, align 8, !tbaa !17
  %7 = getelementptr inbounds nuw i8, ptr %4, i64 8
  store ptr @.str.2, ptr %7, align 8, !tbaa !20
  %8 = getelementptr inbounds nuw i8, ptr %4, i64 16
  store i32 112, ptr %8, align 8, !tbaa !21
  %9 = getelementptr inbounds nuw i8, ptr %4, i64 20
  store i32 9, ptr %9, align 4, !tbaa !22
  call void @_ZN5boost4urls6detail18throw_length_errorERKNS_15source_locationE(ptr noundef nonnull align 8 dereferenceable(24) %4) #23
  unreachable

10:                                               ; preds = %3
  %11 = getelementptr inbounds nuw i8, ptr %0, i64 208
  %12 = load i64, ptr %11, align 8, !tbaa !28
  %.not = icmp ugt i64 %1, %12
  br i1 %.not, label %13, label %33

13:                                               ; preds = %10
  %14 = getelementptr inbounds nuw i8, ptr %0, i64 200
  %15 = load ptr, ptr %14, align 8, !tbaa !6
  %.not14 = icmp eq ptr %15, null
  br i1 %.not14, label %28, label %16

16:                                               ; preds = %13
  %17 = lshr i64 %12, 1
  %18 = sub nuw nsw i64 16, %17
  %.not15 = icmp ugt i64 %12, %18
  %19 = add nuw nsw i64 %17, %12
  %spec.select16 = select i1 %.not15, i64 16, i64 %19
  %spec.select = tail call i64 @llvm.umax.i64(i64 %spec.select16, i64 %1)
  %20 = add nuw nsw i64 %spec.select, 1
  %21 = tail call noalias noundef nonnull ptr @_Znam(i64 noundef %20) #24
  store i64 %spec.select, ptr %11, align 8, !tbaa !28
  %22 = getelementptr inbounds i8, ptr %0, i64 192
  %23 = load ptr, ptr %22, align 8, !tbaa !31
  %24 = tail call noundef i64 @_ZNK5boost4urls6detail8url_impl6offsetEi(ptr noundef nonnull align 8 dereferenceable(171) %23, i32 noundef 7) #22
  %25 = add i64 %24, 1
  tail call void @llvm.memcpy.p0.p0.i64(ptr nonnull align 1 %21, ptr nonnull align 1 %15, i64 %25, i1 false)
  %26 = load ptr, ptr %14, align 8, !tbaa !6
  %27 = getelementptr inbounds nuw i8, ptr %2, i64 24
  store ptr %26, ptr %27, align 8, !tbaa !32
  br label %31

28:                                               ; preds = %13
  %29 = add nuw nsw i64 %1, 1
  %30 = tail call noalias noundef nonnull ptr @_Znam(i64 noundef %29) #24
  store i64 %1, ptr %11, align 8, !tbaa !28
  store i8 0, ptr %30, align 1, !tbaa !29
  br label %31

31:                                               ; preds = %28, %16
  %.sink = phi ptr [ %30, %28 ], [ %21, %16 ]
  store ptr %.sink, ptr %14, align 8
  %32 = getelementptr inbounds i8, ptr %0, i64 16
  store ptr %.sink, ptr %32, align 8, !tbaa !30
  br label %33

33:                                               ; preds = %10, %31
  ret void
}